(dp0
S'Ben'
p1
(dp2
S'mobile'
p3
S'849-292-9950'
p4
sS'home'
p5
S'392-954-3921'
p6
sS'work'
p7
S'939-282-1172'
p8
ssS'Tommy'
p9
(dp10
S'home'
p11
S'298-187-1234'
p12
sS'work'
p13
S'849-277-9288'
p14
ssS'Rick'
p15
(dp16
S'mobile'
p17
S'757-388-2811'
p18
sg13
S'858-833-8282'
p19
ssS'Marta'
p20
(dp21
g7
S'858-393-2819'
p22
ssS'Alvaro'
p23
(dp24
g11
S'939-288-1882'
p25
sS'work'
p26
S'919-722-8398'
p27
ssS'Nico'
p28
(dp29
g17
S'849-272-2283'
p30
ss.