(dp0
S'Lucas'
p1
(dp2
S'mobile'
p3
S'585-272-1991'
p4
sS'home'
p5
S'939-777-2821'
p6
sS'work'
p7
S'939-282-1172'
p8
ssS'Alvaro'
p9
(dp10
S'home'
p11
S'939-288-1882'
p12
sS'work'
p13
S'919-722-8398'
p14
ssS'Rick'
p15
(dp16
S'mobile'
p17
S'757-388-2811'
p18
sS'work'
p19
S'858-833-8282'
p20
ssS'Marta'
p21
(dp22
g7
S'858-393-2819'
p23
ssS'Tommy'
p24
(dp25
g11
S'298-187-1234'
p26
sg19
S'849-277-9288'
p27
ssS'Nico'
p28
(dp29
g17
S'849-272-2283'
p30
ss.